; Function Attrs: nounwind uwtable
define dso_local i64 @pg_xact_commit_timestamp(ptr noundef captures(none) %0) local_unnamed_addr #0 {
  %2 = alloca i64, align 8
  %3 = getelementptr inbounds nuw i8, ptr %0, i64 32
  %4 = load i64, ptr %3, align 8
  %5 = trunc i64 %4 to i32
  call void @llvm.lifetime.start.p0(i64 8, ptr nonnull %2) #9
  %6 = call zeroext i1 @TransactionIdGetCommitTsData(i32 noundef %5, ptr noundef nonnull %2, ptr noundef null)
  br i1 %6, label %9, label %7

7:                                                ; preds = %1
  %8 = getelementptr inbounds nuw i8, ptr %0, i64 28
  store i8 1, ptr %8, align 4
  br label %11

9:                                                ; preds = %1
  %10 = load i64, ptr %2, align 8
  br label %11

11:                                               ; preds = %9, %7
  %.0 = phi i64 [ %10, %9 ], [ 0, %7 ]
  call void @llvm.lifetime.end.p0(i64 8, ptr nonnull %2) #9
  ret i64 %.0
}